target datalayout = "e-m:e-p270:32:32-p271:32:32-p272:64:64-i64:64-i128:128-f80:128-n8:16:32:64-S128"
target triple = "x86_64-pc-linux-gnu"

%struct.Vector2 = type { float, float }

; Function Attrs: nounwind uwtable
define zeroext i1 @CheckCollisionLines(<2 x float> %0, <2 x float> %1, <2 x float> %2, <2 x float> %3, ptr noundef %4) #0 {
  %6 = alloca %struct.Vector2, align 4
  %7 = alloca %struct.Vector2, align 4
  %8 = alloca %struct.Vector2, align 4
  %9 = alloca %struct.Vector2, align 4
  %10 = alloca ptr, align 8
  %11 = alloca i8, align 1
  %12 = alloca float, align 4
  %13 = alloca float, align 4
  %14 = alloca float, align 4
  store <2 x float> %0, ptr %6, align 4
  store <2 x float> %1, ptr %7, align 4
  store <2 x float> %2, ptr %8, align 4
  store <2 x float> %3, ptr %9, align 4
  store ptr %4, ptr %10, align 8
  call void @llvm.lifetime.start.p0(i64 1, ptr %11) #8
  store i8 0, ptr %11, align 1
  call void @llvm.lifetime.start.p0(i64 4, ptr %12) #8
  %15 = getelementptr inbounds nuw %struct.Vector2, ptr %9, i32 0, i32 1
  %16 = load float, ptr %15, align 4
  %17 = getelementptr inbounds nuw %struct.Vector2, ptr %8, i32 0, i32 1
  %18 = load float, ptr %17, align 4
  %19 = fsub float %16, %18
  %20 = getelementptr inbounds nuw %struct.Vector2, ptr %7, i32 0, i32 0
  %21 = load float, ptr %20, align 4
  %22 = getelementptr inbounds nuw %struct.Vector2, ptr %6, i32 0, i32 0
  %23 = load float, ptr %22, align 4
  %24 = fsub float %21, %23
  %25 = getelementptr inbounds nuw %struct.Vector2, ptr %9, i32 0, i32 0
  %26 = load float, ptr %25, align 4
  %27 = getelementptr inbounds nuw %struct.Vector2, ptr %8, i32 0, i32 0
  %28 = load float, ptr %27, align 4
  %29 = fsub float %26, %28
  %30 = getelementptr inbounds nuw %struct.Vector2, ptr %7, i32 0, i32 1
  %31 = load float, ptr %30, align 4
  %32 = getelementptr inbounds nuw %struct.Vector2, ptr %6, i32 0, i32 1
  %33 = load float, ptr %32, align 4
  %34 = fsub float %31, %33
  %35 = fmul float %29, %34
  %36 = fneg float %35
  %37 = call float @llvm.fmuladd.f32(float %19, float %24, float %36)
  store float %37, ptr %12, align 4
  %38 = load float, ptr %12, align 4
  %39 = call float @llvm.fabs.f32(float %38)
  %40 = fcmp oge float %39, 0x3E80000000000000
  br i1 %40, label %41, label %226

41:                                               ; preds = %5
  store i8 1, ptr %11, align 1
  call void @llvm.lifetime.start.p0(i64 4, ptr %13) #8
  %42 = getelementptr inbounds nuw %struct.Vector2, ptr %8, i32 0, i32 0
  %43 = load float, ptr %42, align 4
  %44 = getelementptr inbounds nuw %struct.Vector2, ptr %9, i32 0, i32 0
  %45 = load float, ptr %44, align 4
  %46 = fsub float %43, %45
  %47 = getelementptr inbounds nuw %struct.Vector2, ptr %6, i32 0, i32 0
  %48 = load float, ptr %47, align 4
  %49 = getelementptr inbounds nuw %struct.Vector2, ptr %7, i32 0, i32 1
  %50 = load float, ptr %49, align 4
  %51 = getelementptr inbounds nuw %struct.Vector2, ptr %6, i32 0, i32 1
  %52 = load float, ptr %51, align 4
  %53 = getelementptr inbounds nuw %struct.Vector2, ptr %7, i32 0, i32 0
  %54 = load float, ptr %53, align 4
  %55 = fmul float %52, %54
  %56 = fneg float %55
  %57 = call float @llvm.fmuladd.f32(float %48, float %50, float %56)
  %58 = getelementptr inbounds nuw %struct.Vector2, ptr %6, i32 0, i32 0
  %59 = load float, ptr %58, align 4
  %60 = getelementptr inbounds nuw %struct.Vector2, ptr %7, i32 0, i32 0
  %61 = load float, ptr %60, align 4
  %62 = fsub float %59, %61
  %63 = getelementptr inbounds nuw %struct.Vector2, ptr %8, i32 0, i32 0
  %64 = load float, ptr %63, align 4
  %65 = getelementptr inbounds nuw %struct.Vector2, ptr %9, i32 0, i32 1
  %66 = load float, ptr %65, align 4
  %67 = getelementptr inbounds nuw %struct.Vector2, ptr %8, i32 0, i32 1
  %68 = load float, ptr %67, align 4
  %69 = getelementptr inbounds nuw %struct.Vector2, ptr %9, i32 0, i32 0
  %70 = load float, ptr %69, align 4
  %71 = fmul float %68, %70
  %72 = fneg float %71
  %73 = call float @llvm.fmuladd.f32(float %64, float %66, float %72)
  %74 = fmul float %62, %73
  %75 = fneg float %74
  %76 = call float @llvm.fmuladd.f32(float %46, float %57, float %75)
  %77 = load float, ptr %12, align 4
  %78 = fdiv float %76, %77
  store float %78, ptr %13, align 4
  call void @llvm.lifetime.start.p0(i64 4, ptr %14) #8
  %79 = getelementptr inbounds nuw %struct.Vector2, ptr %8, i32 0, i32 1
  %80 = load float, ptr %79, align 4
  %81 = getelementptr inbounds nuw %struct.Vector2, ptr %9, i32 0, i32 1
  %82 = load float, ptr %81, align 4
  %83 = fsub float %80, %82
  %84 = getelementptr inbounds nuw %struct.Vector2, ptr %6, i32 0, i32 0
  %85 = load float, ptr %84, align 4
  %86 = getelementptr inbounds nuw %struct.Vector2, ptr %7, i32 0, i32 1
  %87 = load float, ptr %86, align 4
  %88 = getelementptr inbounds nuw %struct.Vector2, ptr %6, i32 0, i32 1
  %89 = load float, ptr %88, align 4
  %90 = getelementptr inbounds nuw %struct.Vector2, ptr %7, i32 0, i32 0
  %91 = load float, ptr %90, align 4
  %92 = fmul float %89, %91
  %93 = fneg float %92
  %94 = call float @llvm.fmuladd.f32(float %85, float %87, float %93)
  %95 = getelementptr inbounds nuw %struct.Vector2, ptr %6, i32 0, i32 1
  %96 = load float, ptr %95, align 4
  %97 = getelementptr inbounds nuw %struct.Vector2, ptr %7, i32 0, i32 1
  %98 = load float, ptr %97, align 4
  %99 = fsub float %96, %98
  %100 = getelementptr inbounds nuw %struct.Vector2, ptr %8, i32 0, i32 0
  %101 = load float, ptr %100, align 4
  %102 = getelementptr inbounds nuw %struct.Vector2, ptr %9, i32 0, i32 1
  %103 = load float, ptr %102, align 4
  %104 = getelementptr inbounds nuw %struct.Vector2, ptr %8, i32 0, i32 1
  %105 = load float, ptr %104, align 4
  %106 = getelementptr inbounds nuw %struct.Vector2, ptr %9, i32 0, i32 0
  %107 = load float, ptr %106, align 4
  %108 = fmul float %105, %107
  %109 = fneg float %108
  %110 = call float @llvm.fmuladd.f32(float %101, float %103, float %109)
  %111 = fmul float %99, %110
  %112 = fneg float %111
  %113 = call float @llvm.fmuladd.f32(float %83, float %94, float %112)
  %114 = load float, ptr %12, align 4
  %115 = fdiv float %113, %114
  store float %115, ptr %14, align 4
  %116 = getelementptr inbounds nuw %struct.Vector2, ptr %6, i32 0, i32 0
  %117 = load float, ptr %116, align 4
  %118 = getelementptr inbounds nuw %struct.Vector2, ptr %7, i32 0, i32 0
  %119 = load float, ptr %118, align 4
  %120 = fsub float %117, %119
  %121 = call float @llvm.fabs.f32(float %120)
  %122 = fcmp ogt float %121, 0x3E80000000000000
  br i1 %122, label %123, label %139

123:                                              ; preds = %41
  %124 = load float, ptr %13, align 4
  %125 = getelementptr inbounds nuw %struct.Vector2, ptr %6, i32 0, i32 0
  %126 = load float, ptr %125, align 4
  %127 = getelementptr inbounds nuw %struct.Vector2, ptr %7, i32 0, i32 0
  %128 = load float, ptr %127, align 4
  %129 = call float @llvm.minnum.f32(float %126, float %128)
  %130 = fcmp olt float %124, %129
  br i1 %130, label %211, label %131

131:                                              ; preds = %123
  %132 = load float, ptr %13, align 4
  %133 = getelementptr inbounds nuw %struct.Vector2, ptr %6, i32 0, i32 0
  %134 = load float, ptr %133, align 4
  %135 = getelementptr inbounds nuw %struct.Vector2, ptr %7, i32 0, i32 0
  %136 = load float, ptr %135, align 4
  %137 = call float @llvm.maxnum.f32(float %134, float %136)
  %138 = fcmp ogt float %132, %137
  br i1 %138, label %211, label %139

139:                                              ; preds = %131, %41
  %140 = getelementptr inbounds nuw %struct.Vector2, ptr %8, i32 0, i32 0
  %141 = load float, ptr %140, align 4
  %142 = getelementptr inbounds nuw %struct.Vector2, ptr %9, i32 0, i32 0
  %143 = load float, ptr %142, align 4
  %144 = fsub float %141, %143
  %145 = call float @llvm.fabs.f32(float %144)
  %146 = fcmp ogt float %145, 0x3E80000000000000
  br i1 %146, label %147, label %163

147:                                              ; preds = %139
  %148 = load float, ptr %13, align 4
  %149 = getelementptr inbounds nuw %struct.Vector2, ptr %8, i32 0, i32 0
  %150 = load float, ptr %149, align 4
  %151 = getelementptr inbounds nuw %struct.Vector2, ptr %9, i32 0, i32 0
  %152 = load float, ptr %151, align 4
  %153 = call float @llvm.minnum.f32(float %150, float %152)
  %154 = fcmp olt float %148, %153
  br i1 %154, label %211, label %155

155:                                              ; preds = %147
  %156 = load float, ptr %13, align 4
  %157 = getelementptr inbounds nuw %struct.Vector2, ptr %8, i32 0, i32 0
  %158 = load float, ptr %157, align 4
  %159 = getelementptr inbounds nuw %struct.Vector2, ptr %9, i32 0, i32 0
  %160 = load float, ptr %159, align 4
  %161 = call float @llvm.maxnum.f32(float %158, float %160)
  %162 = fcmp ogt float %156, %161
  br i1 %162, label %211, label %163

163:                                              ; preds = %155, %139
  %164 = getelementptr inbounds nuw %struct.Vector2, ptr %6, i32 0, i32 1
  %165 = load float, ptr %164, align 4
  %166 = getelementptr inbounds nuw %struct.Vector2, ptr %7, i32 0, i32 1
  %167 = load float, ptr %166, align 4
  %168 = fsub float %165, %167
  %169 = call float @llvm.fabs.f32(float %168)
  %170 = fcmp ogt float %169, 0x3E80000000000000
  br i1 %170, label %171, label %187

171:                                              ; preds = %163
  %172 = load float, ptr %14, align 4
  %173 = getelementptr inbounds nuw %struct.Vector2, ptr %6, i32 0, i32 1
  %174 = load float, ptr %173, align 4
  %175 = getelementptr inbounds nuw %struct.Vector2, ptr %7, i32 0, i32 1
  %176 = load float, ptr %175, align 4
  %177 = call float @llvm.minnum.f32(float %174, float %176)
  %178 = fcmp olt float %172, %177
  br i1 %178, label %211, label %179

179:                                              ; preds = %171
  %180 = load float, ptr %14, align 4
  %181 = getelementptr inbounds nuw %struct.Vector2, ptr %6, i32 0, i32 1
  %182 = load float, ptr %181, align 4
  %183 = getelementptr inbounds nuw %struct.Vector2, ptr %7, i32 0, i32 1
  %184 = load float, ptr %183, align 4
  %185 = call float @llvm.maxnum.f32(float %182, float %184)
  %186 = fcmp ogt float %180, %185
  br i1 %186, label %211, label %187

187:                                              ; preds = %179, %163
  %188 = getelementptr inbounds nuw %struct.Vector2, ptr %8, i32 0, i32 1
  %189 = load float, ptr %188, align 4
  %190 = getelementptr inbounds nuw %struct.Vector2, ptr %9, i32 0, i32 1
  %191 = load float, ptr %190, align 4
  %192 = fsub float %189, %191
  %193 = call float @llvm.fabs.f32(float %192)
  %194 = fcmp ogt float %193, 0x3E80000000000000
  br i1 %194, label %195, label %212

195:                                              ; preds = %187
  %196 = load float, ptr %14, align 4
  %197 = getelementptr inbounds nuw %struct.Vector2, ptr %8, i32 0, i32 1
  %198 = load float, ptr %197, align 4
  %199 = getelementptr inbounds nuw %struct.Vector2, ptr %9, i32 0, i32 1
  %200 = load float, ptr %199, align 4
  %201 = call float @llvm.minnum.f32(float %198, float %200)
  %202 = fcmp olt float %196, %201
  br i1 %202, label %211, label %203

203:                                              ; preds = %195
  %204 = load float, ptr %14, align 4
  %205 = getelementptr inbounds nuw %struct.Vector2, ptr %8, i32 0, i32 1
  %206 = load float, ptr %205, align 4
  %207 = getelementptr inbounds nuw %struct.Vector2, ptr %9, i32 0, i32 1
  %208 = load float, ptr %207, align 4
  %209 = call float @llvm.maxnum.f32(float %206, float %208)
  %210 = fcmp ogt float %204, %209
  br i1 %210, label %211, label %212

211:                                              ; preds = %203, %195, %179, %171, %155, %147, %131, %123
  store i8 0, ptr %11, align 1
  br label %212

212:                                              ; preds = %211, %203, %187
  %213 = load i8, ptr %11, align 1, !range !3, !noundef !4
  %214 = trunc i8 %213 to i1
  br i1 %214, label %215, label %225

215:                                              ; preds = %212
  %216 = load ptr, ptr %10, align 8
  %217 = icmp ne ptr %216, null
  br i1 %217, label %218, label %225

218:                                              ; preds = %215
  %219 = load float, ptr %13, align 4
  %220 = load ptr, ptr %10, align 8
  %221 = getelementptr inbounds nuw %struct.Vector2, ptr %220, i32 0, i32 0
  store float %219, ptr %221, align 4
  %222 = load float, ptr %14, align 4
  %223 = load ptr, ptr %10, align 8
  %224 = getelementptr inbounds nuw %struct.Vector2, ptr %223, i32 0, i32 1
  store float %222, ptr %224, align 4
  br label %225

225:                                              ; preds = %218, %215, %212
  call void @llvm.lifetime.end.p0(i64 4, ptr %14) #8
  call void @llvm.lifetime.end.p0(i64 4, ptr %13) #8
  br label %226

226:                                              ; preds = %225, %5
  %227 = load i8, ptr %11, align 1, !range !3, !noundef !4
  %228 = trunc i8 %227 to i1
  call void @llvm.lifetime.end.p0(i64 4, ptr %12) #8
  call void @llvm.lifetime.end.p0(i64 1, ptr %11) #8
  ret i1 %228
}