; Function Attrs: mustprogress nofree norecurse nosync nounwind willreturn memory(argmem: write) uwtable
define noundef zeroext i1 @CheckCollisionLines(<2 x float> %0, <2 x float> %1, <2 x float> %2, <2 x float> %3, ptr noundef writeonly captures(address_is_null) %4) local_unnamed_addr #14 {
  %.sroa.0.4.vec.extract = extractelement <2 x float> %3, i64 1
  %.sroa.042.4.vec.extract = extractelement <2 x float> %2, i64 1
  %6 = fsub float %.sroa.0.4.vec.extract, %.sroa.042.4.vec.extract
  %.sroa.067.0.vec.extract = extractelement <2 x float> %1, i64 0
  %.sroa.092.0.vec.extract = extractelement <2 x float> %0, i64 0
  %7 = fsub <2 x float> %1, %0
  %8 = extractelement <2 x float> %7, i64 0
  %.sroa.0.0.vec.extract = extractelement <2 x float> %3, i64 0
  %.sroa.042.0.vec.extract = extractelement <2 x float> %2, i64 0
  %9 = fsub <2 x float> %3, %2
  %10 = extractelement <2 x float> %9, i64 0
  %.sroa.067.4.vec.extract = extractelement <2 x float> %1, i64 1
  %.sroa.092.4.vec.extract = extractelement <2 x float> %0, i64 1
  %11 = fsub float %.sroa.067.4.vec.extract, %.sroa.092.4.vec.extract
  %12 = fneg float %11
  %13 = fmul float %10, %12
  %14 = tail call float @llvm.fmuladd.f32(float %6, float %8, float %13)
  %15 = tail call float @llvm.fabs.f32(float %14)
  %16 = fcmp ult float %15, 0x3E80000000000000
  br i1 %16, label %.thread, label %17

17:                                               ; preds = %5
  %18 = fsub <2 x float> %2, %3
  %19 = extractelement <2 x float> %18, i64 0
  %20 = fneg float %.sroa.067.0.vec.extract
  %21 = fmul float %.sroa.092.4.vec.extract, %20
  %22 = tail call float @llvm.fmuladd.f32(float %.sroa.092.0.vec.extract, float %.sroa.067.4.vec.extract, float %21)
  %23 = fsub <2 x float> %0, %1
  %24 = extractelement <2 x float> %23, i64 0
  %25 = fneg float %.sroa.0.0.vec.extract
  %26 = fmul float %.sroa.042.4.vec.extract, %25
  %27 = tail call float @llvm.fmuladd.f32(float %.sroa.042.0.vec.extract, float %.sroa.0.4.vec.extract, float %26)
  %28 = fneg float %27
  %29 = fmul float %24, %28
  %30 = tail call float @llvm.fmuladd.f32(float %19, float %22, float %29)
  %31 = fdiv float %30, %14
  %32 = fsub float %.sroa.042.4.vec.extract, %.sroa.0.4.vec.extract
  %33 = fsub float %.sroa.092.4.vec.extract, %.sroa.067.4.vec.extract
  %34 = fmul float %33, %28
  %35 = tail call float @llvm.fmuladd.f32(float %32, float %22, float %34)
  %36 = fdiv float %35, %14
  %37 = tail call float @llvm.fabs.f32(float %24)
  %38 = fcmp ogt float %37, 0x3E80000000000000
  br i1 %38, label %39, label %44

39:                                               ; preds = %17
  %40 = tail call float @llvm.minnum.f32(float %.sroa.092.0.vec.extract, float %.sroa.067.0.vec.extract)
  %41 = fcmp olt float %31, %40
  %42 = tail call float @llvm.maxnum.f32(float %.sroa.092.0.vec.extract, float %.sroa.067.0.vec.extract)
  %43 = fcmp ogt float %31, %42
  %or.cond123 = select i1 %41, i1 true, i1 %43
  br i1 %or.cond123, label %.thread, label %44

44:                                               ; preds = %39, %17
  %45 = tail call float @llvm.fabs.f32(float %19)
  %46 = fcmp ogt float %45, 0x3E80000000000000
  br i1 %46, label %47, label %52

47:                                               ; preds = %44
  %48 = tail call float @llvm.minnum.f32(float %.sroa.042.0.vec.extract, float %.sroa.0.0.vec.extract)
  %49 = fcmp olt float %31, %48
  %50 = tail call float @llvm.maxnum.f32(float %.sroa.042.0.vec.extract, float %.sroa.0.0.vec.extract)
  %51 = fcmp ogt float %31, %50
  %or.cond125 = select i1 %49, i1 true, i1 %51
  br i1 %or.cond125, label %.thread, label %52

52:                                               ; preds = %47, %44
  %53 = tail call float @llvm.fabs.f32(float %33)
  %54 = fcmp ogt float %53, 0x3E80000000000000
  br i1 %54, label %55, label %60

55:                                               ; preds = %52
  %56 = tail call float @llvm.minnum.f32(float %.sroa.092.4.vec.extract, float %.sroa.067.4.vec.extract)
  %57 = fcmp olt float %36, %56
  %58 = tail call float @llvm.maxnum.f32(float %.sroa.092.4.vec.extract, float %.sroa.067.4.vec.extract)
  %59 = fcmp ogt float %36, %58
  %or.cond127 = select i1 %57, i1 true, i1 %59
  br i1 %or.cond127, label %.thread, label %60

60:                                               ; preds = %55, %52
  %61 = tail call float @llvm.fabs.f32(float %32)
  %62 = fcmp ogt float %61, 0x3E80000000000000
  br i1 %62, label %63, label %68

63:                                               ; preds = %60
  %64 = tail call float @llvm.minnum.f32(float %.sroa.042.4.vec.extract, float %.sroa.0.4.vec.extract)
  %65 = fcmp olt float %36, %64
  %66 = tail call float @llvm.maxnum.f32(float %.sroa.042.4.vec.extract, float %.sroa.0.4.vec.extract)
  %67 = fcmp ogt float %36, %66
  %or.cond129 = select i1 %65, i1 true, i1 %67
  br i1 %or.cond129, label %.thread, label %68

68:                                               ; preds = %63, %60
  %.not = icmp eq ptr %4, null
  br i1 %.not, label %.thread, label %69

69:                                               ; preds = %68
  store float %31, ptr %4, align 4
  %70 = getelementptr inbounds nuw i8, ptr %4, i64 4
  store float %36, ptr %70, align 4
  br label %.thread

.thread:                                          ; preds = %63, %55, %47, %39, %68, %69, %5
  %.0 = phi i1 [ false, %5 ], [ true, %69 ], [ true, %68 ], [ false, %39 ], [ false, %47 ], [ false, %55 ], [ false, %63 ]
  ret i1 %.0
}